; ModuleID = '63/1867.c'
source_filename = "63/1867.c"
target datalayout = "e-m:e-p270:32:32-p271:32:32-p272:64:64-i64:64-f80:128-n8:16:32:64-S128"
target triple = "x86_64-pc-linux-gnu"

@.str = private unnamed_addr constant [5 x i8] c"%d%d\00", align 1
@.str.1 = private unnamed_addr constant [3 x i8] c"%d\00", align 1
@.str.2 = private unnamed_addr constant [4 x i8] c"%d \00", align 1
@.str.3 = private unnamed_addr constant [4 x i8] c"%d\0A\00", align 1

; Function Attrs: noinline nounwind uwtable
define dso_local i32 @main() #0 {
  %1 = alloca i32, align 4
  %2 = alloca [101 x [101 x i32]], align 16
  %3 = alloca [101 x [101 x i32]], align 16
  %4 = alloca [101 x [101 x i32]], align 16
  %5 = alloca i32, align 4
  %6 = alloca i32, align 4
  %7 = alloca i32, align 4
  %8 = alloca i32, align 4
  %9 = alloca i32, align 4
  %10 = alloca i32, align 4
  %11 = alloca i32, align 4
  %12 = alloca i32, align 4
  store i32 0, i32* %1, align 4
  %13 = bitcast [101 x [101 x i32]]* %2 to i8*
  call void @llvm.memset.p0i8.i64(i8* align 16 %13, i8 0, i64 40804, i1 false)
  %14 = bitcast [101 x [101 x i32]]* %3 to i8*
  call void @llvm.memset.p0i8.i64(i8* align 16 %14, i8 0, i64 40804, i1 false)
  %15 = bitcast [101 x [101 x i32]]* %4 to i8*
  call void @llvm.memset.p0i8.i64(i8* align 16 %15, i8 0, i64 40804, i1 false)
  store i32 0, i32* %12, align 4
  %16 = call i32 (i8*, ...) @__isoc99_scanf(i8* getelementptr inbounds ([5 x i8], [5 x i8]* @.str, i64 0, i64 0), i32* %5, i32* %6)
  store i32 0, i32* %9, align 4
  br label %17

17:                                               ; preds = %38, %0
  %18 = load i32, i32* %9, align 4
  %19 = load i32, i32* %5, align 4
  %20 = icmp slt i32 %18, %19
  br i1 %20, label %21, label %41

21:                                               ; preds = %17
  store i32 0, i32* %10, align 4
  br label %22

22:                                               ; preds = %34, %21
  %23 = load i32, i32* %10, align 4
  %24 = load i32, i32* %6, align 4
  %25 = icmp slt i32 %23, %24
  br i1 %25, label %26, label %37

26:                                               ; preds = %22
  %27 = load i32, i32* %9, align 4
  %28 = sext i32 %27 to i64
  %29 = getelementptr inbounds [101 x [101 x i32]], [101 x [101 x i32]]* %2, i64 0, i64 %28
  %30 = load i32, i32* %10, align 4
  %31 = sext i32 %30 to i64
  %32 = getelementptr inbounds [101 x i32], [101 x i32]* %29, i64 0, i64 %31
  %33 = call i32 (i8*, ...) @__isoc99_scanf(i8* getelementptr inbounds ([3 x i8], [3 x i8]* @.str.1, i64 0, i64 0), i32* %32)
  br label %34

34:                                               ; preds = %26
  %35 = load i32, i32* %10, align 4
  %36 = add nsw i32 %35, 1
  store i32 %36, i32* %10, align 4
  br label %22

37:                                               ; preds = %22
  br label %38

38:                                               ; preds = %37
  %39 = load i32, i32* %9, align 4
  %40 = add nsw i32 %39, 1
  store i32 %40, i32* %9, align 4
  br label %17

41:                                               ; preds = %17
  %42 = call i32 (i8*, ...) @__isoc99_scanf(i8* getelementptr inbounds ([5 x i8], [5 x i8]* @.str, i64 0, i64 0), i32* %7, i32* %8)
  store i32 0, i32* %9, align 4
  br label %43

43:                                               ; preds = %64, %41
  %44 = load i32, i32* %9, align 4
  %45 = load i32, i32* %7, align 4
  %46 = icmp slt i32 %44, %45
  br i1 %46, label %47, label %67

47:                                               ; preds = %43
  store i32 0, i32* %10, align 4
  br label %48

48:                                               ; preds = %60, %47
  %49 = load i32, i32* %10, align 4
  %50 = load i32, i32* %8, align 4
  %51 = icmp slt i32 %49, %50
  br i1 %51, label %52, label %63

52:                                               ; preds = %48
  %53 = load i32, i32* %9, align 4
  %54 = sext i32 %53 to i64
  %55 = getelementptr inbounds [101 x [101 x i32]], [101 x [101 x i32]]* %3, i64 0, i64 %54
  %56 = load i32, i32* %10, align 4
  %57 = sext i32 %56 to i64
  %58 = getelementptr inbounds [101 x i32], [101 x i32]* %55, i64 0, i64 %57
  %59 = call i32 (i8*, ...) @__isoc99_scanf(i8* getelementptr inbounds ([3 x i8], [3 x i8]* @.str.1, i64 0, i64 0), i32* %58)
  br label %60

60:                                               ; preds = %52
  %61 = load i32, i32* %10, align 4
  %62 = add nsw i32 %61, 1
  store i32 %62, i32* %10, align 4
  br label %48

63:                                               ; preds = %48
  br label %64

64:                                               ; preds = %63
  %65 = load i32, i32* %9, align 4
  %66 = add nsw i32 %65, 1
  store i32 %66, i32* %9, align 4
  br label %43

67:                                               ; preds = %43
  store i32 0, i32* %9, align 4
  br label %68

68:                                               ; preds = %172, %67
  %69 = load i32, i32* %9, align 4
  %70 = load i32, i32* %5, align 4
  %71 = icmp slt i32 %69, %70
  br i1 %71, label %72, label %175

72:                                               ; preds = %68
  store i32 0, i32* %10, align 4
  br label %73

73:                                               ; preds = %120, %72
  %74 = load i32, i32* %10, align 4
  %75 = load i32, i32* %8, align 4
  %76 = sub nsw i32 %75, 1
  %77 = icmp slt i32 %74, %76
  br i1 %77, label %78, label %123

78:                                               ; preds = %73
  store i32 0, i32* %11, align 4
  br label %79

79:                                               ; preds = %101, %78
  %80 = load i32, i32* %11, align 4
  %81 = load i32, i32* %6, align 4
  %82 = icmp slt i32 %80, %81
  br i1 %82, label %83, label %104

83:                                               ; preds = %79
  %84 = load i32, i32* %12, align 4
  %85 = load i32, i32* %9, align 4
  %86 = sext i32 %85 to i64
  %87 = getelementptr inbounds [101 x [101 x i32]], [101 x [101 x i32]]* %2, i64 0, i64 %86
  %88 = load i32, i32* %11, align 4
  %89 = sext i32 %88 to i64
  %90 = getelementptr inbounds [101 x i32], [101 x i32]* %87, i64 0, i64 %89
  %91 = load i32, i32* %90, align 4
  %92 = load i32, i32* %11, align 4
  %93 = sext i32 %92 to i64
  %94 = getelementptr inbounds [101 x [101 x i32]], [101 x [101 x i32]]* %3, i64 0, i64 %93
  %95 = load i32, i32* %10, align 4
  %96 = sext i32 %95 to i64
  %97 = getelementptr inbounds [101 x i32], [101 x i32]* %94, i64 0, i64 %96
  %98 = load i32, i32* %97, align 4
  %99 = mul nsw i32 %91, %98
  %100 = add nsw i32 %84, %99
  store i32 %100, i32* %12, align 4
  br label %101

101:                                              ; preds = %83
  %102 = load i32, i32* %11, align 4
  %103 = add nsw i32 %102, 1
  store i32 %103, i32* %11, align 4
  br label %79

104:                                              ; preds = %79
  %105 = load i32, i32* %12, align 4
  %106 = load i32, i32* %9, align 4
  %107 = sext i32 %106 to i64
  %108 = getelementptr inbounds [101 x [101 x i32]], [101 x [101 x i32]]* %4, i64 0, i64 %107
  %109 = load i32, i32* %10, align 4
  %110 = sext i32 %109 to i64
  %111 = getelementptr inbounds [101 x i32], [101 x i32]* %108, i64 0, i64 %110
  store i32 %105, i32* %111, align 4
  %112 = load i32, i32* %9, align 4
  %113 = sext i32 %112 to i64
  %114 = getelementptr inbounds [101 x [101 x i32]], [101 x [101 x i32]]* %4, i64 0, i64 %113
  %115 = load i32, i32* %10, align 4
  %116 = sext i32 %115 to i64
  %117 = getelementptr inbounds [101 x i32], [101 x i32]* %114, i64 0, i64 %116
  %118 = load i32, i32* %117, align 4
  %119 = call i32 (i8*, ...) @printf(i8* getelementptr inbounds ([4 x i8], [4 x i8]* @.str.2, i64 0, i64 0), i32 %118)
  store i32 0, i32* %12, align 4
  br label %120

120:                                              ; preds = %104
  %121 = load i32, i32* %10, align 4
  %122 = add nsw i32 %121, 1
  store i32 %122, i32* %10, align 4
  br label %73

123:                                              ; preds = %73
  %124 = load i32, i32* %10, align 4
  %125 = load i32, i32* %8, align 4
  %126 = sub nsw i32 %125, 1
  %127 = icmp eq i32 %124, %126
  br i1 %127, label %128, label %171

128:                                              ; preds = %123
  store i32 0, i32* %11, align 4
  br label %129

129:                                              ; preds = %151, %128
  %130 = load i32, i32* %11, align 4
  %131 = load i32, i32* %6, align 4
  %132 = icmp slt i32 %130, %131
  br i1 %132, label %133, label %154

133:                                              ; preds = %129
  %134 = load i32, i32* %12, align 4
  %135 = load i32, i32* %9, align 4
  %136 = sext i32 %135 to i64
  %137 = getelementptr inbounds [101 x [101 x i32]], [101 x [101 x i32]]* %2, i64 0, i64 %136
  %138 = load i32, i32* %11, align 4
  %139 = sext i32 %138 to i64
  %140 = getelementptr inbounds [101 x i32], [101 x i32]* %137, i64 0, i64 %139
  %141 = load i32, i32* %140, align 4
  %142 = load i32, i32* %11, align 4
  %143 = sext i32 %142 to i64
  %144 = getelementptr inbounds [101 x [101 x i32]], [101 x [101 x i32]]* %3, i64 0, i64 %143
  %145 = load i32, i32* %10, align 4
  %146 = sext i32 %145 to i64
  %147 = getelementptr inbounds [101 x i32], [101 x i32]* %144, i64 0, i64 %146
  %148 = load i32, i32* %147, align 4
  %149 = mul nsw i32 %141, %148
  %150 = add nsw i32 %134, %149
  store i32 %150, i32* %12, align 4
  br label %151

151:                                              ; preds = %133
  %152 = load i32, i32* %11, align 4
  %153 = add nsw i32 %152, 1
  store i32 %153, i32* %11, align 4
  br label %129

154:                                              ; preds = %129
  %155 = load i32, i32* %12, align 4
  %156 = load i32, i32* %9, align 4
  %157 = sext i32 %156 to i64
  %158 = getelementptr inbounds [101 x [101 x i32]], [101 x [101 x i32]]* %4, i64 0, i64 %157
  %159 = load i32, i32* %8, align 4
  %160 = sub nsw i32 %159, 1
  %161 = sext i32 %160 to i64
  %162 = getelementptr inbounds [101 x i32], [101 x i32]* %158, i64 0, i64 %161
  store i32 %155, i32* %162, align 4
  %163 = load i32, i32* %9, align 4
  %164 = sext i32 %163 to i64
  %165 = getelementptr inbounds [101 x [101 x i32]], [101 x [101 x i32]]* %4, i64 0, i64 %164
  %166 = load i32, i32* %10, align 4
  %167 = sext i32 %166 to i64
  %168 = getelementptr inbounds [101 x i32], [101 x i32]* %165, i64 0, i64 %167
  %169 = load i32, i32* %168, align 4
  %170 = call i32 (i8*, ...) @printf(i8* getelementptr inbounds ([4 x i8], [4 x i8]* @.str.3, i64 0, i64 0), i32 %169)
  store i32 0, i32* %12, align 4
  br label %171

171:                                              ; preds = %154, %123
  br label %172

172:                                              ; preds = %171
  %173 = load i32, i32* %9, align 4
  %174 = add nsw i32 %173, 1
  store i32 %174, i32* %9, align 4
  br label %68

175:                                              ; preds = %68
  %176 = load i32, i32* %1, align 4
  ret i32 %176
}

; Function Attrs: argmemonly nounwind willreturn
declare void @llvm.memset.p0i8.i64(i8* nocapture writeonly, i8, i64, i1 immarg) #1

declare dso_local i32 @__isoc99_scanf(i8*, ...) #2

declare dso_local i32 @printf(i8*, ...) #2


!llvm.module.flags = !{!0}
!llvm.ident = !{!1}

!0 = !{i32 1, !"wchar_size", i32 4}
!1 = !{!"clang version 10.0.0-4ubuntu1 "}
